target datalayout = "e-m:e-p270:32:32-p271:32:32-p272:64:64-i64:64-i128:128-f80:128-n8:16:32:64-S128"
target triple = "x86_64-pc-linux-gnu"

%struct.rb_data_type_struct = type { ptr, %struct.anon, ptr, ptr, i64 }
%struct.anon = type { ptr, ptr, ptr, ptr, [1 x ptr] }

@ossl_x509store_type = internal constant %struct.rb_data_type_struct { ptr @.str.34, %struct.anon { ptr @ossl_x509store_mark, ptr @ossl_x509store_free, ptr null, ptr null, [1 x ptr] zeroinitializer }, ptr null, ptr null, i64 33 }, align 8
@rb_eRuntimeError = external global i64, align 8
@.str.2 = private unnamed_addr constant [26 x i8] c"STORE wasn't initialized!\00", align 1
@store_ex_verify_cb_idx = internal global i32 0, align 4
@.str.36 = private unnamed_addr constant [53 x i8] c"OpenSSL::X509::Store.new does not take any arguments\00", align 1
@.str.37 = private unnamed_addr constant [7 x i8] c"@error\00", align 1
@.str.38 = private unnamed_addr constant [14 x i8] c"@error_string\00", align 1
@.str.39 = private unnamed_addr constant [7 x i8] c"@chain\00", align 1
@.str.40 = private unnamed_addr constant [17 x i8] c"@verify_callback\00", align 1

; Function Attrs: nounwind sspstrong uwtable
define internal i64 @ossl_x509store_set_vfy_cb(i64 noundef %0, i64 noundef %1) #0 {
  %3 = alloca i64, align 8
  %4 = alloca i64, align 8
  %5 = alloca ptr, align 8
  store i64 %0, ptr %3, align 8, !tbaa !6
  store i64 %1, ptr %4, align 8, !tbaa !6
  call void @llvm.lifetime.start.p0(i64 8, ptr %5) #12
  br label %6

6:                                                ; preds = %2
  %7 = load i64, ptr %3, align 8, !tbaa !6
  %8 = call ptr @rb_check_typeddata(i64 noundef %7, ptr noundef @ossl_x509store_type)
  store ptr %8, ptr %5, align 8, !tbaa !25
  %9 = load ptr, ptr %5, align 8, !tbaa !25
  %10 = icmp ne ptr %9, null
  br i1 %10, label %13, label %11

11:                                               ; preds = %6
  %12 = load i64, ptr @rb_eRuntimeError, align 8, !tbaa !6
  call void (i64, ptr, ...) @ossl_raise(i64 noundef %12, ptr noundef @.str.2) #16
  unreachable

13:                                               ; preds = %6
  br label %14

14:                                               ; preds = %13
  br label %15

15:                                               ; preds = %14
  %16 = load i64, ptr %3, align 8, !tbaa !6
  %17 = load i64, ptr %4, align 8, !tbaa !6
  %18 = call i64 @rb_iv_set(i64 noundef %16, ptr noundef @.str.40, i64 noundef %17)
  %19 = load ptr, ptr %5, align 8, !tbaa !25
  %20 = load i32, ptr @store_ex_verify_cb_idx, align 4, !tbaa !10
  %21 = load i64, ptr %4, align 8, !tbaa !6
  %22 = inttoptr i64 %21 to ptr
  %23 = call i32 @X509_STORE_set_ex_data(ptr noundef %19, i32 noundef %20, ptr noundef %22)
  %24 = load i64, ptr %4, align 8, !tbaa !6
  call void @llvm.lifetime.end.p0(i64 8, ptr %5) #12
  ret i64 %24
}

; Function Attrs: nounwind sspstrong uwtable
define internal i64 @ossl_x509store_initialize(i32 noundef %0, ptr noundef %1, i64 noundef %2) #0 {
  %4 = alloca i32, align 4
  %5 = alloca ptr, align 8
  %6 = alloca i64, align 8
  %7 = alloca ptr, align 8
  store i32 %0, ptr %4, align 4, !tbaa !10
  store ptr %1, ptr %5, align 8, !tbaa !27
  store i64 %2, ptr %6, align 8, !tbaa !6
  call void @llvm.lifetime.start.p0(i64 8, ptr %7) #12
  br label %8

8:                                                ; preds = %3
  %9 = load i64, ptr %6, align 8, !tbaa !6
  %10 = call ptr @rb_check_typeddata(i64 noundef %9, ptr noundef @ossl_x509store_type)
  store ptr %10, ptr %7, align 8, !tbaa !25
  %11 = load ptr, ptr %7, align 8, !tbaa !25
  %12 = icmp ne ptr %11, null
  br i1 %12, label %15, label %13

13:                                               ; preds = %8
  %14 = load i64, ptr @rb_eRuntimeError, align 8, !tbaa !6
  call void (i64, ptr, ...) @ossl_raise(i64 noundef %14, ptr noundef @.str.2) #16
  unreachable

15:                                               ; preds = %8
  br label %16

16:                                               ; preds = %15
  br label %17

17:                                               ; preds = %16
  %18 = load i32, ptr %4, align 4, !tbaa !10
  %19 = icmp ne i32 %18, 0
  br i1 %19, label %20, label %21

20:                                               ; preds = %17
  call void (ptr, ...) @rb_warn(ptr noundef @.str.36) #14
  br label %21

21:                                               ; preds = %20, %17
  %22 = load ptr, ptr %7, align 8, !tbaa !25
  call void @X509_STORE_set_verify_cb(ptr noundef %22, ptr noundef @x509store_verify_cb)
  %23 = load i64, ptr %6, align 8, !tbaa !6
  %24 = call i64 @ossl_x509store_set_vfy_cb(i64 noundef %23, i64 noundef 4)
  %25 = load i64, ptr %6, align 8, !tbaa !6
  %26 = call i64 @rb_iv_set(i64 noundef %25, ptr noundef @.str.37, i64 noundef 4)
  %27 = load i64, ptr %6, align 8, !tbaa !6
  %28 = call i64 @rb_iv_set(i64 noundef %27, ptr noundef @.str.38, i64 noundef 4)
  %29 = load i64, ptr %6, align 8, !tbaa !6
  %30 = call i64 @rb_iv_set(i64 noundef %29, ptr noundef @.str.39, i64 noundef 4)
  %31 = load i64, ptr %6, align 8, !tbaa !6
  call void @llvm.lifetime.end.p0(i64 8, ptr %7) #12
  ret i64 %31
}