; Function Attrs: nounwind sspstrong uwtable
define internal noundef i64 @ossl_x509store_initialize(i32 noundef %0, ptr readnone captures(none) %1, i64 noundef returned %2) #0 {
  %4 = tail call ptr @rb_check_typeddata(i64 noundef %2, ptr noundef nonnull @ossl_x509store_type) #5
  %.not = icmp eq ptr %4, null
  br i1 %.not, label %5, label %7

5:                                                ; preds = %3
  %6 = load i64, ptr @rb_eRuntimeError, align 8, !tbaa !20
  tail call void (i64, ptr, ...) @ossl_raise(i64 noundef %6, ptr noundef nonnull @.str.2) #7
  unreachable

7:                                                ; preds = %3
  %.not8 = icmp eq i32 %0, 0
  br i1 %.not8, label %9, label %8

8:                                                ; preds = %7
  tail call void (ptr, ...) @rb_warn(ptr noundef nonnull @.str.36) #6
  br label %9

9:                                                ; preds = %8, %7
  tail call void @X509_STORE_set_verify_cb(ptr noundef nonnull %4, ptr noundef nonnull @x509store_verify_cb) #5
  %10 = tail call ptr @rb_check_typeddata(i64 noundef %2, ptr noundef nonnull @ossl_x509store_type) #5
  %.not.i = icmp eq ptr %10, null
  br i1 %.not.i, label %11, label %ossl_x509store_set_vfy_cb.exit

11:                                               ; preds = %9
  %12 = load i64, ptr @rb_eRuntimeError, align 8, !tbaa !20
  tail call void (i64, ptr, ...) @ossl_raise(i64 noundef %12, ptr noundef nonnull @.str.2) #7
  unreachable

ossl_x509store_set_vfy_cb.exit:                   ; preds = %9
  %13 = tail call i64 @rb_iv_set(i64 noundef %2, ptr noundef nonnull @.str.40, i64 noundef 4) #5
  %14 = load i32, ptr @store_ex_verify_cb_idx, align 4, !tbaa !6
  %15 = tail call i32 @X509_STORE_set_ex_data(ptr noundef nonnull %10, i32 noundef %14, ptr noundef nonnull inttoptr (i64 4 to ptr)) #5
  %16 = tail call i64 @rb_iv_set(i64 noundef %2, ptr noundef nonnull @.str.37, i64 noundef 4) #5
  %17 = tail call i64 @rb_iv_set(i64 noundef %2, ptr noundef nonnull @.str.38, i64 noundef 4) #5
  %18 = tail call i64 @rb_iv_set(i64 noundef %2, ptr noundef nonnull @.str.39, i64 noundef 4) #5
  ret i64 %2
}